target datalayout = "e-m:e-p270:32:32-p271:32:32-p272:64:64-i64:64-i128:128-f80:128-n8:16:32:64-S128"
target triple = "x86_64-pc-linux-gnu"

@proto_register_iso7816.ett = internal global [8 x ptr] [ptr @ett_iso7816, ptr @ett_iso7816_class, ptr @ett_iso7816_param, ptr @ett_iso7816_p1, ptr @ett_iso7816_p2, ptr @ett_iso7816_atr, ptr @ett_iso7816_atr_ta, ptr @ett_iso7816_atr_td], align 16
@.str.80 = private unnamed_addr constant [13 x i8] c"ISO/IEC 7816\00", align 1
@.str.81 = private unnamed_addr constant [9 x i8] c"ISO 7816\00", align 1
@.str.82 = private unnamed_addr constant [8 x i8] c"iso7816\00", align 1
@proto_iso7816 = internal global i32 0, align 4
@iso7816_handle = internal global ptr null, align 8
@transactions = internal global ptr null, align 8
@.str.83 = private unnamed_addr constant [15 x i8] c"ISO/IEC 7816-3\00", align 1
@.str.84 = private unnamed_addr constant [11 x i8] c"ISO 7816-3\00", align 1
@.str.85 = private unnamed_addr constant [12 x i8] c"iso7816.atr\00", align 1
@proto_iso7816_atr = internal global i32 0, align 4
@iso7816_atr_handle = internal global ptr null, align 8
@.str.86 = private unnamed_addr constant [21 x i8] c"iso7816.apdu_payload\00", align 1
@.str.87 = private unnamed_addr constant [35 x i8] c"ISO7816 proprietary APDU dissector\00", align 1
@iso7816_apdu_pld_table = internal global ptr null, align 8

; Function Attrs: null_pointer_is_valid sspstrong uwtable
define hidden void @proto_register_iso7816() #0 {
  %1 = alloca ptr, align 8
  call void @llvm.lifetime.start.p0(i64 8, ptr %1) #5
  %2 = call i32 @proto_register_protocol(ptr noundef @.str.80, ptr noundef @.str.81, ptr noundef @.str.82)
  store i32 %2, ptr @proto_iso7816, align 4
  %3 = load i32, ptr @proto_iso7816, align 4
  call void @proto_register_field_array(i32 noundef %3, ptr noundef @proto_register_iso7816.hf, i32 noundef 38)
  call void @proto_register_subtree_array(ptr noundef @proto_register_iso7816.ett, i32 noundef 8)
  %4 = load i32, ptr @proto_iso7816, align 4
  %5 = call ptr @expert_register_protocol(i32 noundef %4)
  store ptr %5, ptr %1, align 8
  %6 = load ptr, ptr %1, align 8
  call void @expert_register_field_array(ptr noundef %6, ptr noundef @proto_register_iso7816.ei, i32 noundef 1)
  %7 = load i32, ptr @proto_iso7816, align 4
  %8 = call ptr @register_dissector(ptr noundef @.str.82, ptr noundef @dissect_iso7816, i32 noundef %7)
  store ptr %8, ptr @iso7816_handle, align 8
  %9 = call ptr @wmem_epan_scope()
  %10 = call ptr @wmem_file_scope()
  %11 = call noalias ptr @wmem_tree_new_autoreset(ptr noundef %9, ptr noundef %10)
  store ptr %11, ptr @transactions, align 8
  %12 = load i32, ptr @proto_iso7816, align 4
  %13 = call i32 @proto_register_protocol_in_name_only(ptr noundef @.str.83, ptr noundef @.str.84, ptr noundef @.str.85, i32 noundef %12, i32 noundef 1)
  store i32 %13, ptr @proto_iso7816_atr, align 4
  %14 = load i32, ptr @proto_iso7816_atr, align 4
  %15 = call ptr @register_dissector(ptr noundef @.str.85, ptr noundef @dissect_iso7816_atr, i32 noundef %14)
  store ptr %15, ptr @iso7816_atr_handle, align 8
  %16 = load i32, ptr @proto_iso7816, align 4
  %17 = call ptr @register_decode_as_next_proto(i32 noundef %16, ptr noundef @.str.86, ptr noundef @.str.87, ptr noundef null)
  store ptr %17, ptr @iso7816_apdu_pld_table, align 8
  call void @llvm.lifetime.end.p0(i64 8, ptr %1) #5
  ret void
}