; Function Attrs: null_pointer_is_valid sspstrong uwtable
define hidden void @proto_register_iso7816() local_unnamed_addr #0 {
  %1 = tail call i32 @proto_register_protocol(ptr noundef nonnull @.str.80, ptr noundef nonnull @.str.81, ptr noundef nonnull @.str.82)
  store i32 %1, ptr @proto_iso7816, align 4
  tail call void @proto_register_field_array(i32 noundef %1, ptr noundef nonnull @proto_register_iso7816.hf, i32 noundef 38)
  tail call void @proto_register_subtree_array(ptr noundef nonnull @proto_register_iso7816.ett, i32 noundef 8)
  %2 = load i32, ptr @proto_iso7816, align 4
  %3 = tail call ptr @expert_register_protocol(i32 noundef %2)
  tail call void @expert_register_field_array(ptr noundef %3, ptr noundef nonnull @proto_register_iso7816.ei, i32 noundef 1)
  %4 = load i32, ptr @proto_iso7816, align 4
  %5 = tail call ptr @register_dissector(ptr noundef nonnull @.str.82, ptr noundef nonnull @dissect_iso7816, i32 noundef %4)
  store ptr %5, ptr @iso7816_handle, align 8
  %6 = tail call ptr @wmem_epan_scope()
  %7 = tail call ptr @wmem_file_scope()
  %8 = tail call noalias ptr @wmem_tree_new_autoreset(ptr noundef %6, ptr noundef %7)
  store ptr %8, ptr @transactions, align 8
  %9 = load i32, ptr @proto_iso7816, align 4
  %10 = tail call i32 @proto_register_protocol_in_name_only(ptr noundef nonnull @.str.83, ptr noundef nonnull @.str.84, ptr noundef nonnull @.str.85, i32 noundef %9, i32 noundef 1)
  store i32 %10, ptr @proto_iso7816_atr, align 4
  %11 = tail call ptr @register_dissector(ptr noundef nonnull @.str.85, ptr noundef nonnull @dissect_iso7816_atr, i32 noundef %10)
  store ptr %11, ptr @iso7816_atr_handle, align 8
  %12 = load i32, ptr @proto_iso7816, align 4
  %13 = tail call ptr @register_decode_as_next_proto(i32 noundef %12, ptr noundef nonnull @.str.86, ptr noundef nonnull @.str.87, ptr noundef null)
  store ptr %13, ptr @iso7816_apdu_pld_table, align 8
  ret void
}